target datalayout = "e-m:e-p270:32:32-p271:32:32-p272:64:64-i64:64-i128:128-f80:128-n8:16:32:64-S128"
target triple = "x86_64-pc-linux-gnu"

%"class.igl::opengl::glfw::imgui::ImGuiPlugin" = type { %"class.igl::opengl::glfw::ViewerPlugin", float, float, ptr, %"class.std::vector" }
%"class.igl::opengl::glfw::ViewerPlugin" = type { ptr, %"class.std::__cxx11::basic_string", ptr }
%"class.std::__cxx11::basic_string" = type { %"struct.std::__cxx11::basic_string<char>::_Alloc_hider", i64, %union.anon }
%"struct.std::__cxx11::basic_string<char>::_Alloc_hider" = type { ptr }
%union.anon = type { i64, [8 x i8] }
%"class.std::vector" = type { %"struct.std::_Vector_base" }
%"struct.std::_Vector_base" = type { %"struct.std::_Vector_base<igl::opengl::glfw::imgui::ImGuiWidget *, std::allocator<igl::opengl::glfw::imgui::ImGuiWidget *>>::_Vector_impl" }
%"struct.std::_Vector_base<igl::opengl::glfw::imgui::ImGuiWidget *, std::allocator<igl::opengl::glfw::imgui::ImGuiWidget *>>::_Vector_impl" = type { %"struct.std::_Vector_base<igl::opengl::glfw::imgui::ImGuiWidget *, std::allocator<igl::opengl::glfw::imgui::ImGuiWidget *>>::_Vector_impl_data" }
%"struct.std::_Vector_base<igl::opengl::glfw::imgui::ImGuiWidget *, std::allocator<igl::opengl::glfw::imgui::ImGuiWidget *>>::_Vector_impl_data" = type { ptr, ptr, ptr }
%"class.igl::opengl::glfw::Viewer" = type { i32, %"class.std::vector.4", i64, i32, ptr, %"class.std::vector.9", i64, i32, %"class.std::vector.14", [8 x i8], %"class.Eigen::Quaternion", i32, i32, i32, i32, float, %"class.Eigen::Matrix.21", i8, i8, float, %"class.std::function", %"class.std::function", %"class.std::function", %"class.std::function.31", %"class.std::function.31", %"class.std::function.31", %"class.std::function.33", %"class.std::function.35", %"class.std::function.31", %"class.std::function.35", %"class.std::function.35", ptr, ptr, ptr, ptr, ptr, ptr, ptr, ptr, ptr, ptr, [8 x i8] }
%"class.std::vector.4" = type { %"struct.std::_Vector_base.5" }
%"struct.std::_Vector_base.5" = type { %"struct.std::_Vector_base<igl::opengl::ViewerData, std::allocator<igl::opengl::ViewerData>>::_Vector_impl" }
%"struct.std::_Vector_base<igl::opengl::ViewerData, std::allocator<igl::opengl::ViewerData>>::_Vector_impl" = type { %"struct.std::_Vector_base<igl::opengl::ViewerData, std::allocator<igl::opengl::ViewerData>>::_Vector_impl_data" }
%"struct.std::_Vector_base<igl::opengl::ViewerData, std::allocator<igl::opengl::ViewerData>>::_Vector_impl_data" = type { ptr, ptr, ptr }
%"class.std::vector.9" = type { %"struct.std::_Vector_base.10" }
%"struct.std::_Vector_base.10" = type { %"struct.std::_Vector_base<igl::opengl::ViewerCore, std::allocator<igl::opengl::ViewerCore>>::_Vector_impl" }
%"struct.std::_Vector_base<igl::opengl::ViewerCore, std::allocator<igl::opengl::ViewerCore>>::_Vector_impl" = type { %"struct.std::_Vector_base<igl::opengl::ViewerCore, std::allocator<igl::opengl::ViewerCore>>::_Vector_impl_data" }
%"struct.std::_Vector_base<igl::opengl::ViewerCore, std::allocator<igl::opengl::ViewerCore>>::_Vector_impl_data" = type { ptr, ptr, ptr }
%"class.std::vector.14" = type { %"struct.std::_Vector_base.15" }
%"struct.std::_Vector_base.15" = type { %"struct.std::_Vector_base<igl::opengl::glfw::ViewerPlugin *, std::allocator<igl::opengl::glfw::ViewerPlugin *>>::_Vector_impl" }
%"struct.std::_Vector_base<igl::opengl::glfw::ViewerPlugin *, std::allocator<igl::opengl::glfw::ViewerPlugin *>>::_Vector_impl" = type { %"struct.std::_Vector_base<igl::opengl::glfw::ViewerPlugin *, std::allocator<igl::opengl::glfw::ViewerPlugin *>>::_Vector_impl_data" }
%"struct.std::_Vector_base<igl::opengl::glfw::ViewerPlugin *, std::allocator<igl::opengl::glfw::ViewerPlugin *>>::_Vector_impl_data" = type { ptr, ptr, ptr }
%"class.Eigen::Quaternion" = type { %"class.Eigen::Matrix" }
%"class.Eigen::Matrix" = type { %"class.Eigen::PlainObjectBase" }
%"class.Eigen::PlainObjectBase" = type { %"class.Eigen::DenseStorage" }
%"class.Eigen::DenseStorage" = type { %"struct.Eigen::internal::plain_array" }
%"struct.Eigen::internal::plain_array" = type { [4 x float] }
%"class.Eigen::Matrix.21" = type { %"class.Eigen::PlainObjectBase.22" }
%"class.Eigen::PlainObjectBase.22" = type { %"class.Eigen::DenseStorage.29" }
%"class.Eigen::DenseStorage.29" = type { %"struct.Eigen::internal::plain_array.30" }
%"struct.Eigen::internal::plain_array.30" = type { [3 x float] }
%"class.std::function" = type { %"class.std::_Function_base", ptr }
%"class.std::_Function_base" = type { %"union.std::_Any_data", ptr }
%"union.std::_Any_data" = type { %"union.std::_Nocopy_types" }
%"union.std::_Nocopy_types" = type { { i64, i64 } }
%"class.std::function.33" = type { %"class.std::_Function_base", ptr }
%"class.std::function.31" = type { %"class.std::_Function_base", ptr }
%"class.std::function.35" = type { %"class.std::_Function_base", ptr }
%struct.ImGuiIO = type { i32, i32, %struct.ImVec2, float, float, ptr, ptr, float, float, float, [22 x i32], float, float, ptr, ptr, float, i8, ptr, %struct.ImVec2, i8, i8, i8, i8, i8, i8, float, ptr, ptr, ptr, ptr, ptr, ptr, ptr, ptr, ptr, ptr, %struct.ImVec2, [5 x i8], float, float, i8, i8, i8, i8, [512 x i8], [20 x float], i8, i8, i8, i8, i8, i8, i8, float, i32, i32, i32, i32, i32, %struct.ImVec2, i8, i32, i32, %struct.ImVec2, [5 x %struct.ImVec2], [5 x double], [5 x i8], [5 x i8], [5 x i8], [5 x i8], [5 x i8], [5 x i8], [5 x float], [5 x float], [5 x %struct.ImVec2], [5 x float], [512 x float], [512 x float], [20 x float], [20 x float], float, i8, i16, %struct.ImVector }
%struct.ImVec2 = type { float, float }
%struct.ImVector = type { i32, i32, ptr }
%"class.__gnu_cxx::__normal_iterator" = type { ptr }

; Function Attrs: mustprogress nounwind uwtable
define linkonce_odr dso_local noundef nonnull align 8 dereferenceable(8) ptr @_ZNK9__gnu_cxx17__normal_iteratorIPPN3igl6opengl4glfw5imgui11ImGuiWidgetESt6vectorIS6_SaIS6_EEE4baseEv(ptr noundef nonnull align 8 dereferenceable(8) %0) #1 comdat align 2 {
  %2 = alloca ptr, align 8
  store ptr %0, ptr %2, align 8, !tbaa !94
  %3 = load ptr, ptr %2, align 8
  %4 = getelementptr inbounds nuw %"class.__gnu_cxx::__normal_iterator", ptr %3, i32 0, i32 0
  ret ptr %4
}

; Function Attrs: mustprogress nounwind uwtable
define linkonce_odr dso_local void @_ZN9__gnu_cxx17__normal_iteratorIPPN3igl6opengl4glfw5imgui11ImGuiWidgetESt6vectorIS6_SaIS6_EEEC2ERKS7_(ptr noundef nonnull align 8 dereferenceable(8) %0, ptr noundef nonnull align 8 dereferenceable(8) %1) unnamed_addr #1 comdat align 2 {
  %3 = alloca ptr, align 8
  %4 = alloca ptr, align 8
  store ptr %0, ptr %3, align 8, !tbaa !94
  store ptr %1, ptr %4, align 8, !tbaa !140
  %5 = load ptr, ptr %3, align 8
  %6 = getelementptr inbounds nuw %"class.__gnu_cxx::__normal_iterator", ptr %5, i32 0, i32 0
  %7 = load ptr, ptr %4, align 8, !tbaa !140
  %8 = load ptr, ptr %7, align 8, !tbaa !91
  store ptr %8, ptr %6, align 8, !tbaa !96
  ret void
}

; Function Attrs: mustprogress nounwind uwtable
define linkonce_odr dso_local noundef nonnull align 8 dereferenceable(8) ptr @_ZN9__gnu_cxx17__normal_iteratorIPPN3igl6opengl4glfw5imgui11ImGuiWidgetESt6vectorIS6_SaIS6_EEEppEv(ptr noundef nonnull align 8 dereferenceable(8) %0) #1 comdat align 2 {
  %2 = alloca ptr, align 8
  store ptr %0, ptr %2, align 8, !tbaa !94
  %3 = load ptr, ptr %2, align 8
  %4 = getelementptr inbounds nuw %"class.__gnu_cxx::__normal_iterator", ptr %3, i32 0, i32 0
  %5 = load ptr, ptr %4, align 8, !tbaa !96
  %6 = getelementptr inbounds nuw ptr, ptr %5, i32 1
  store ptr %6, ptr %4, align 8, !tbaa !96
  ret ptr %3
}

; Function Attrs: mustprogress nounwind uwtable
define linkonce_odr dso_local noundef nonnull align 8 dereferenceable(8) ptr @_ZNK9__gnu_cxx17__normal_iteratorIPPN3igl6opengl4glfw5imgui11ImGuiWidgetESt6vectorIS6_SaIS6_EEEdeEv(ptr noundef nonnull align 8 dereferenceable(8) %0) #1 comdat align 2 {
  %2 = alloca ptr, align 8
  store ptr %0, ptr %2, align 8, !tbaa !94
  %3 = load ptr, ptr %2, align 8
  %4 = getelementptr inbounds nuw %"class.__gnu_cxx::__normal_iterator", ptr %3, i32 0, i32 0
  %5 = load ptr, ptr %4, align 8, !tbaa !96
  ret ptr %5
}

; Function Attrs: inlinehint mustprogress nounwind uwtable
define linkonce_odr dso_local noundef zeroext i1 @_ZN9__gnu_cxxneIPPN3igl6opengl4glfw5imgui11ImGuiWidgetESt6vectorIS6_SaIS6_EEEEbRKNS_17__normal_iteratorIT_T0_EESG_(ptr noundef nonnull align 8 dereferenceable(8) %0, ptr noundef nonnull align 8 dereferenceable(8) %1) #6 comdat {
  %3 = alloca ptr, align 8
  %4 = alloca ptr, align 8
  store ptr %0, ptr %3, align 8, !tbaa !94
  store ptr %1, ptr %4, align 8, !tbaa !94
  %5 = load ptr, ptr %3, align 8, !tbaa !94
  %6 = call noundef nonnull align 8 dereferenceable(8) ptr @_ZNK9__gnu_cxx17__normal_iteratorIPPN3igl6opengl4glfw5imgui11ImGuiWidgetESt6vectorIS6_SaIS6_EEE4baseEv(ptr noundef nonnull align 8 dereferenceable(8) %5) #5
  %7 = load ptr, ptr %6, align 8, !tbaa !91
  %8 = load ptr, ptr %4, align 8, !tbaa !94
  %9 = call noundef nonnull align 8 dereferenceable(8) ptr @_ZNK9__gnu_cxx17__normal_iteratorIPPN3igl6opengl4glfw5imgui11ImGuiWidgetESt6vectorIS6_SaIS6_EEE4baseEv(ptr noundef nonnull align 8 dereferenceable(8) %8) #5
  %10 = load ptr, ptr %9, align 8, !tbaa !91
  %11 = icmp ne ptr %7, %10
  ret i1 %11
}

; Function Attrs: mustprogress nounwind uwtable
define linkonce_odr dso_local ptr @_ZNSt6vectorIPN3igl6opengl4glfw5imgui11ImGuiWidgetESaIS5_EE3endEv(ptr noundef nonnull align 8 dereferenceable(24) %0) #1 comdat align 2 {
  %2 = alloca %"class.__gnu_cxx::__normal_iterator", align 8
  %3 = alloca ptr, align 8
  store ptr %0, ptr %3, align 8, !tbaa !89
  %4 = load ptr, ptr %3, align 8
  %5 = getelementptr inbounds nuw %"struct.std::_Vector_base", ptr %4, i32 0, i32 0
  %6 = getelementptr inbounds nuw %"struct.std::_Vector_base<igl::opengl::glfw::imgui::ImGuiWidget *, std::allocator<igl::opengl::glfw::imgui::ImGuiWidget *>>::_Vector_impl_data", ptr %5, i32 0, i32 1
  call void @_ZN9__gnu_cxx17__normal_iteratorIPPN3igl6opengl4glfw5imgui11ImGuiWidgetESt6vectorIS6_SaIS6_EEEC2ERKS7_(ptr noundef nonnull align 8 dereferenceable(8) %2, ptr noundef nonnull align 8 dereferenceable(8) %6) #5
  %7 = getelementptr inbounds nuw %"class.__gnu_cxx::__normal_iterator", ptr %2, i32 0, i32 0
  %8 = load ptr, ptr %7, align 8
  ret ptr %8
}

; Function Attrs: mustprogress nounwind uwtable
define linkonce_odr dso_local ptr @_ZNSt6vectorIPN3igl6opengl4glfw5imgui11ImGuiWidgetESaIS5_EE5beginEv(ptr noundef nonnull align 8 dereferenceable(24) %0) #1 comdat align 2 {
  %2 = alloca %"class.__gnu_cxx::__normal_iterator", align 8
  %3 = alloca ptr, align 8
  store ptr %0, ptr %3, align 8, !tbaa !89
  %4 = load ptr, ptr %3, align 8
  %5 = getelementptr inbounds nuw %"struct.std::_Vector_base", ptr %4, i32 0, i32 0
  %6 = getelementptr inbounds nuw %"struct.std::_Vector_base<igl::opengl::glfw::imgui::ImGuiWidget *, std::allocator<igl::opengl::glfw::imgui::ImGuiWidget *>>::_Vector_impl_data", ptr %5, i32 0, i32 0
  call void @_ZN9__gnu_cxx17__normal_iteratorIPPN3igl6opengl4glfw5imgui11ImGuiWidgetESt6vectorIS6_SaIS6_EEEC2ERKS7_(ptr noundef nonnull align 8 dereferenceable(8) %2, ptr noundef nonnull align 8 dereferenceable(8) %6) #5
  %7 = getelementptr inbounds nuw %"class.__gnu_cxx::__normal_iterator", ptr %2, i32 0, i32 0
  %8 = load ptr, ptr %7, align 8
  ret ptr %8
}

; Function Attrs: mustprogress uwtable
define dso_local noundef zeroext i1 @_ZN3igl6opengl4glfw5imgui11ImGuiPlugin8key_downEii(ptr noundef nonnull align 8 dereferenceable(88) %0, i32 noundef %1, i32 noundef %2) unnamed_addr #3 align 2 {
  %4 = alloca i1, align 1
  %5 = alloca ptr, align 8
  %6 = alloca i32, align 4
  %7 = alloca i32, align 4
  %8 = alloca ptr, align 8
  %9 = alloca %"class.__gnu_cxx::__normal_iterator", align 8
  %10 = alloca %"class.__gnu_cxx::__normal_iterator", align 8
  %11 = alloca i32, align 4
  %12 = alloca ptr, align 8
  store ptr %0, ptr %5, align 8, !tbaa !15
  store i32 %1, ptr %6, align 4, !tbaa !98
  store i32 %2, ptr %7, align 4, !tbaa !98
  %13 = load ptr, ptr %5, align 8
  %14 = getelementptr inbounds nuw %"class.igl::opengl::glfw::ViewerPlugin", ptr %13, i32 0, i32 2
  %15 = load ptr, ptr %14, align 8, !tbaa !37
  %16 = getelementptr inbounds nuw %"class.igl::opengl::glfw::Viewer", ptr %15, i32 0, i32 4
  %17 = load ptr, ptr %16, align 16, !tbaa !38
  %18 = load i32, ptr %6, align 4, !tbaa !98
  %19 = load i32, ptr %7, align 4, !tbaa !98
  call void @_Z26ImGui_ImplGlfw_KeyCallbackP10GLFWwindowiiii(ptr noundef %17, i32 noundef %18, i32 noundef 0, i32 noundef 1, i32 noundef %19)
  %20 = call noundef nonnull align 8 dereferenceable(5464) ptr @_ZN5ImGui5GetIOEv()
  %21 = getelementptr inbounds nuw %struct.ImGuiIO, ptr %20, i32 0, i32 47
  %22 = load i8, ptr %21, align 1, !tbaa !112, !range !110, !noundef !111
  %23 = trunc i8 %22 to i1
  br i1 %23, label %24, label %25

24:                                               ; preds = %3
  store i1 true, ptr %4, align 1
  br label %56

25:                                               ; preds = %3
  call void @llvm.lifetime.start.p0(i64 8, ptr %8) #5
  %26 = getelementptr inbounds nuw %"class.igl::opengl::glfw::imgui::ImGuiPlugin", ptr %13, i32 0, i32 4
  store ptr %26, ptr %8, align 8, !tbaa !89
  call void @llvm.lifetime.start.p0(i64 8, ptr %9) #5
  %27 = load ptr, ptr %8, align 8, !tbaa !89
  %28 = call ptr @_ZNSt6vectorIPN3igl6opengl4glfw5imgui11ImGuiWidgetESaIS5_EE5beginEv(ptr noundef nonnull align 8 dereferenceable(24) %27) #5
  %29 = getelementptr inbounds nuw %"class.__gnu_cxx::__normal_iterator", ptr %9, i32 0, i32 0
  store ptr %28, ptr %29, align 8
  call void @llvm.lifetime.start.p0(i64 8, ptr %10) #5
  %30 = load ptr, ptr %8, align 8, !tbaa !89
  %31 = call ptr @_ZNSt6vectorIPN3igl6opengl4glfw5imgui11ImGuiWidgetESaIS5_EE3endEv(ptr noundef nonnull align 8 dereferenceable(24) %30) #5
  %32 = getelementptr inbounds nuw %"class.__gnu_cxx::__normal_iterator", ptr %10, i32 0, i32 0
  store ptr %31, ptr %32, align 8
  br label %33

33:                                               ; preds = %51, %25
  %34 = call noundef zeroext i1 @_ZN9__gnu_cxxneIPPN3igl6opengl4glfw5imgui11ImGuiWidgetESt6vectorIS6_SaIS6_EEEEbRKNS_17__normal_iteratorIT_T0_EESG_(ptr noundef nonnull align 8 dereferenceable(8) %9, ptr noundef nonnull align 8 dereferenceable(8) %10) #5
  br i1 %34, label %36, label %35

35:                                               ; preds = %33
  store i32 2, ptr %11, align 4
  br label %53

36:                                               ; preds = %33
  call void @llvm.lifetime.start.p0(i64 8, ptr %12) #5
  %37 = call noundef nonnull align 8 dereferenceable(8) ptr @_ZNK9__gnu_cxx17__normal_iteratorIPPN3igl6opengl4glfw5imgui11ImGuiWidgetESt6vectorIS6_SaIS6_EEEdeEv(ptr noundef nonnull align 8 dereferenceable(8) %9) #5
  store ptr %37, ptr %12, align 8, !tbaa !91
  %38 = load ptr, ptr %12, align 8, !tbaa !91
  %39 = load ptr, ptr %38, align 8, !tbaa !92
  %40 = load i32, ptr %6, align 4, !tbaa !98
  %41 = load i32, ptr %7, align 4, !tbaa !98
  %42 = load ptr, ptr %39, align 8, !tbaa !85
  %43 = getelementptr inbounds ptr, ptr %42, i64 9
  %44 = load ptr, ptr %43, align 8
  %45 = call noundef zeroext i1 %44(ptr noundef nonnull align 8 dereferenceable(56) %39, i32 noundef %40, i32 noundef %41)
  br i1 %45, label %46, label %47

46:                                               ; preds = %36
  store i1 true, ptr %4, align 1
  store i32 1, ptr %11, align 4
  br label %48

47:                                               ; preds = %36
  store i32 0, ptr %11, align 4
  br label %48

48:                                               ; preds = %47, %46
  call void @llvm.lifetime.end.p0(i64 8, ptr %12) #5
  %49 = load i32, ptr %11, align 4
  switch i32 %49, label %53 [
    i32 0, label %50
  ]

50:                                               ; preds = %48
  br label %51

51:                                               ; preds = %50
  %52 = call noundef nonnull align 8 dereferenceable(8) ptr @_ZN9__gnu_cxx17__normal_iteratorIPPN3igl6opengl4glfw5imgui11ImGuiWidgetESt6vectorIS6_SaIS6_EEEppEv(ptr noundef nonnull align 8 dereferenceable(8) %9) #5
  br label %33

53:                                               ; preds = %48, %35
  call void @llvm.lifetime.end.p0(i64 8, ptr %10) #5
  call void @llvm.lifetime.end.p0(i64 8, ptr %9) #5
  call void @llvm.lifetime.end.p0(i64 8, ptr %8) #5
  %54 = load i32, ptr %11, align 4
  switch i32 %54, label %58 [
    i32 2, label %55
    i32 1, label %56
  ]

55:                                               ; preds = %53
  store i1 false, ptr %4, align 1
  br label %56

56:                                               ; preds = %55, %53, %24
  %57 = load i1, ptr %4, align 1
  ret i1 %57

58:                                               ; preds = %53
  unreachable
}